; Function Attrs: mustprogress nofree norecurse nosync nounwind willreturn memory(argmem: read) uwtable
define i32 @_ZNK5arrow14BasicDecimal3213ReduceScaleByEib(ptr noundef nonnull readonly align 4 captures(none) dereferenceable(4) %0, i32 noundef %1, i1 noundef zeroext %2) local_unnamed_addr #7 align 2 {
  %4 = icmp eq i32 %1, 0
  br i1 %4, label %5, label %7

5:                                                ; preds = %3
  %6 = load i32, ptr %0, align 4
  br label %22

7:                                                ; preds = %3
  %8 = sext i32 %1 to i64
  %9 = getelementptr inbounds %"class.arrow::BasicDecimal32", ptr @_ZN5arrowL21kDecimal32PowersOfTenE, i64 %8
  %10 = load i32, ptr %9, align 4
  %11 = icmp eq i32 %10, 0
  br i1 %11, label %_ZNK5arrow14BasicDecimal326DivideERKS0_PS0_S3_.exit.thread, label %_ZNK5arrow14BasicDecimal326DivideERKS0_PS0_S3_.exit

_ZNK5arrow14BasicDecimal326DivideERKS0_PS0_S3_.exit: ; preds = %7
  %12 = load i32, ptr %0, align 4, !tbaa !10
  %13 = sdiv i32 %12, %10
  %14 = srem i32 %12, %10
  br i1 %2, label %15, label %22

_ZNK5arrow14BasicDecimal326DivideERKS0_PS0_S3_.exit.thread: ; preds = %7
  br i1 %2, label %_ZN5arrow14BasicDecimal323AbsEv.exit, label %22

15:                                               ; preds = %_ZNK5arrow14BasicDecimal326DivideERKS0_PS0_S3_.exit
  %spec.select = tail call i32 @llvm.abs.i32(i32 %14, i1 true)
  br label %_ZN5arrow14BasicDecimal323AbsEv.exit

_ZN5arrow14BasicDecimal323AbsEv.exit:             ; preds = %_ZNK5arrow14BasicDecimal326DivideERKS0_PS0_S3_.exit.thread, %15
  %.sroa.09.31417 = phi i32 [ %13, %15 ], [ 0, %_ZNK5arrow14BasicDecimal326DivideERKS0_PS0_S3_.exit.thread ]
  %.sroa.05.1 = phi i32 [ %spec.select, %15 ], [ 0, %_ZNK5arrow14BasicDecimal326DivideERKS0_PS0_S3_.exit.thread ]
  %.in = getelementptr inbounds %"class.arrow::BasicDecimal32", ptr @_ZN5arrowL25kDecimal32HalfPowersOfTenE, i64 %8
  %16 = load i32, ptr %.in, align 4
  %.not = icmp slt i32 %.sroa.05.1, %16
  br i1 %.not, label %22, label %17

17:                                               ; preds = %_ZN5arrow14BasicDecimal323AbsEv.exit
  %18 = load i32, ptr %0, align 4, !tbaa !10
  %19 = ashr i32 %18, 31
  %20 = or i32 %19, 1
  %21 = add nsw i32 %20, %.sroa.09.31417
  br label %22

22:                                               ; preds = %_ZNK5arrow14BasicDecimal326DivideERKS0_PS0_S3_.exit, %_ZNK5arrow14BasicDecimal326DivideERKS0_PS0_S3_.exit.thread, %17, %_ZN5arrow14BasicDecimal323AbsEv.exit, %5
  %.sroa.09.0 = phi i32 [ %6, %5 ], [ %13, %_ZNK5arrow14BasicDecimal326DivideERKS0_PS0_S3_.exit ], [ 0, %_ZNK5arrow14BasicDecimal326DivideERKS0_PS0_S3_.exit.thread ], [ %21, %17 ], [ %.sroa.09.31417, %_ZN5arrow14BasicDecimal323AbsEv.exit ]
  ret i32 %.sroa.09.0
}